; Function Attrs: mustprogress uwtable
define noundef zeroext i1 @_ZNK3nix10SourcePath10pathExistsEv(ptr noundef nonnull align 8 dereferenceable(48) %0) local_unnamed_addr #5 align 2 {
  %2 = load ptr, ptr %0, align 8
  %3 = load ptr, ptr %2, align 8
  %4 = getelementptr i8, ptr %3, i64 -24
  %5 = load i64, ptr %4, align 8
  %6 = getelementptr inbounds i8, ptr %2, i64 %5
  %7 = getelementptr inbounds i8, ptr %0, i64 16
  %8 = load ptr, ptr %6, align 8
  %9 = getelementptr inbounds i8, ptr %8, i64 32
  %10 = load ptr, ptr %9, align 8
  %11 = tail call noundef zeroext i1 %10(ptr noundef nonnull align 8 dereferenceable(80) %6, ptr noundef nonnull align 8 dereferenceable(32) %7)
  ret i1 %11
}